target datalayout = "e-m:e-p270:32:32-p271:32:32-p272:64:64-i64:64-i128:128-f80:128-n8:16:32:64-S128"
target triple = "x86_64-pc-linux-gnu"

%"class.arrow::internal::FloatToStringFormatter" = type { %"class.std::unique_ptr" }
%"class.std::unique_ptr" = type { %"struct.std::__uniq_ptr_data" }
%"struct.std::__uniq_ptr_data" = type { %"class.std::__uniq_ptr_impl" }
%"class.std::__uniq_ptr_impl" = type { %"class.std::tuple" }
%"class.std::tuple" = type { %"struct.std::_Tuple_impl" }
%"struct.std::_Tuple_impl" = type { %"struct.std::_Head_base.1" }
%"struct.std::_Head_base.1" = type { ptr }
%"struct.arrow::internal::FloatToStringFormatter::Impl" = type { %"class.arrow_vendored::double_conversion::DoubleToStringConverter" }
%"class.arrow_vendored::double_conversion::DoubleToStringConverter" = type { i32, ptr, ptr, i8, i32, i32, i32, i32, i32 }
%"class.arrow_vendored::double_conversion::StringBuilder" = type { %"class.arrow_vendored::double_conversion::Vector", i32, [4 x i8] }
%"class.arrow_vendored::double_conversion::Vector" = type <{ ptr, i32, [4 x i8] }>
%"class.arrow::util::Float16" = type { i16 }

; Function Attrs: mustprogress nounwind uwtable
define linkonce_odr noundef nonnull align 8 dereferenceable(8) ptr @_ZNSt10_Head_baseILm0EPN5arrow8internal22FloatToStringFormatter4ImplELb0EE7_M_headERKS5_(ptr noundef nonnull align 8 dereferenceable(8) %0) #3 comdat align 2 {
  %2 = alloca ptr, align 8
  store ptr %0, ptr %2, align 8, !tbaa !78
  %3 = load ptr, ptr %2, align 8, !tbaa !78
  %4 = getelementptr inbounds nuw %"struct.std::_Head_base.1", ptr %3, i32 0, i32 0
  ret ptr %4
}

; Function Attrs: mustprogress nounwind uwtable
define linkonce_odr noundef nonnull align 8 dereferenceable(8) ptr @_ZNSt11_Tuple_implILm0EJPN5arrow8internal22FloatToStringFormatter4ImplESt14default_deleteIS3_EEE7_M_headERKS7_(ptr noundef nonnull align 8 dereferenceable(8) %0) #3 comdat align 2 {
  %2 = alloca ptr, align 8
  store ptr %0, ptr %2, align 8, !tbaa !74
  %3 = load ptr, ptr %2, align 8, !tbaa !74
  %4 = call noundef nonnull align 8 dereferenceable(8) ptr @_ZNSt10_Head_baseILm0EPN5arrow8internal22FloatToStringFormatter4ImplELb0EE7_M_headERKS5_(ptr noundef nonnull align 8 dereferenceable(8) %3) #9
  ret ptr %4
}

; Function Attrs: mustprogress nounwind uwtable
define linkonce_odr noundef nonnull align 8 dereferenceable(8) ptr @_ZSt12__get_helperILm0EPN5arrow8internal22FloatToStringFormatter4ImplEJSt14default_deleteIS3_EEERKT0_RKSt11_Tuple_implIXT_EJS7_DpT1_EE(ptr noundef nonnull align 8 dereferenceable(8) %0) #3 comdat {
  %2 = alloca ptr, align 8
  store ptr %0, ptr %2, align 8, !tbaa !74
  %3 = load ptr, ptr %2, align 8, !tbaa !74
  %4 = call noundef nonnull align 8 dereferenceable(8) ptr @_ZNSt11_Tuple_implILm0EJPN5arrow8internal22FloatToStringFormatter4ImplESt14default_deleteIS3_EEE7_M_headERKS7_(ptr noundef nonnull align 8 dereferenceable(8) %3) #9
  ret ptr %4
}

; Function Attrs: mustprogress nounwind uwtable
define linkonce_odr noundef nonnull align 8 dereferenceable(8) ptr @_ZSt3getILm0EJPN5arrow8internal22FloatToStringFormatter4ImplESt14default_deleteIS3_EEERKNSt13tuple_elementIXT_ESt5tupleIJDpT0_EEE4typeERKSB_(ptr noundef nonnull align 8 dereferenceable(8) %0) #3 comdat {
  %2 = alloca ptr, align 8
  store ptr %0, ptr %2, align 8, !tbaa !72
  %3 = load ptr, ptr %2, align 8, !tbaa !72
  %4 = call noundef nonnull align 8 dereferenceable(8) ptr @_ZSt12__get_helperILm0EPN5arrow8internal22FloatToStringFormatter4ImplEJSt14default_deleteIS3_EEERKT0_RKSt11_Tuple_implIXT_EJS7_DpT1_EE(ptr noundef nonnull align 8 dereferenceable(8) %3) #9
  ret ptr %4
}

; Function Attrs: mustprogress nounwind uwtable
define linkonce_odr noundef ptr @_ZNK14arrow_vendored17double_conversion6VectorIcE5startEv(ptr noundef nonnull align 8 dereferenceable(12) %0) #3 comdat align 2 {
  %2 = alloca ptr, align 8
  store ptr %0, ptr %2, align 8, !tbaa !60
  %3 = load ptr, ptr %2, align 8
  %4 = getelementptr inbounds nuw %"class.arrow_vendored::double_conversion::Vector", ptr %3, i32 0, i32 0
  %5 = load ptr, ptr %4, align 8, !tbaa !62
  ret ptr %5
}

; Function Attrs: mustprogress nounwind uwtable
define linkonce_odr noundef nonnull align 1 dereferenceable(1) ptr @_ZNK14arrow_vendored17double_conversion6VectorIcEixEi(ptr noundef nonnull align 8 dereferenceable(12) %0, i32 noundef %1) #3 comdat align 2 {
  %3 = alloca ptr, align 8
  %4 = alloca i32, align 4
  store ptr %0, ptr %3, align 8, !tbaa !60
  store i32 %1, ptr %4, align 4, !tbaa !12
  %5 = load ptr, ptr %3, align 8
  %6 = getelementptr inbounds nuw %"class.arrow_vendored::double_conversion::Vector", ptr %5, i32 0, i32 0
  %7 = load ptr, ptr %6, align 8, !tbaa !62
  %8 = load i32, ptr %4, align 4, !tbaa !12
  %9 = sext i32 %8 to i64
  %10 = getelementptr inbounds i8, ptr %7, i64 %9
  ret ptr %10
}

; Function Attrs: mustprogress nounwind uwtable
define linkonce_odr noundef ptr @_ZNKSt15__uniq_ptr_implIN5arrow8internal22FloatToStringFormatter4ImplESt14default_deleteIS3_EE6_M_ptrEv(ptr noundef nonnull align 8 dereferenceable(8) %0) #3 comdat align 2 {
  %2 = alloca ptr, align 8
  store ptr %0, ptr %2, align 8, !tbaa !70
  %3 = load ptr, ptr %2, align 8
  %4 = getelementptr inbounds nuw %"class.std::__uniq_ptr_impl", ptr %3, i32 0, i32 0
  %5 = call noundef nonnull align 8 dereferenceable(8) ptr @_ZSt3getILm0EJPN5arrow8internal22FloatToStringFormatter4ImplESt14default_deleteIS3_EEERKNSt13tuple_elementIXT_ESt5tupleIJDpT0_EEE4typeERKSB_(ptr noundef nonnull align 8 dereferenceable(8) %4) #9
  %6 = load ptr, ptr %5, align 8, !tbaa !8
  ret ptr %6
}

; Function Attrs: noinline noreturn nounwind uwtable
define linkonce_odr hidden void @__clang_call_terminate(ptr noundef %0) #6 comdat {
  %2 = call ptr @__cxa_begin_catch(ptr %0) #9
  call void @_ZSt9terminatev() #11
  unreachable
}

; Function Attrs: mustprogress uwtable
define linkonce_odr noundef ptr @_ZN14arrow_vendored17double_conversion13StringBuilder8FinalizeEv(ptr noundef nonnull align 8 dereferenceable(20) %0) #0 comdat align 2 {
  %2 = alloca ptr, align 8
  store ptr %0, ptr %2, align 8, !tbaa !29
  %3 = load ptr, ptr %2, align 8
  %4 = getelementptr inbounds nuw %"class.arrow_vendored::double_conversion::StringBuilder", ptr %3, i32 0, i32 0
  %5 = getelementptr inbounds nuw %"class.arrow_vendored::double_conversion::StringBuilder", ptr %3, i32 0, i32 1
  %6 = load i32, ptr %5, align 8, !tbaa !31
  %7 = call noundef nonnull align 1 dereferenceable(1) ptr @_ZNK14arrow_vendored17double_conversion6VectorIcEixEi(ptr noundef nonnull align 8 dereferenceable(12) %4, i32 noundef %6)
  store i8 0, ptr %7, align 1, !tbaa !16
  %8 = getelementptr inbounds nuw %"class.arrow_vendored::double_conversion::StringBuilder", ptr %3, i32 0, i32 1
  store i32 -1, ptr %8, align 8, !tbaa !31
  %9 = getelementptr inbounds nuw %"class.arrow_vendored::double_conversion::StringBuilder", ptr %3, i32 0, i32 0
  %10 = call noundef ptr @_ZNK14arrow_vendored17double_conversion6VectorIcE5startEv(ptr noundef nonnull align 8 dereferenceable(12) %9)
  ret ptr %10
}

; Function Attrs: mustprogress nounwind uwtable
define linkonce_odr noundef zeroext i1 @_ZNK14arrow_vendored17double_conversion13StringBuilder12is_finalizedEv(ptr noundef nonnull align 8 dereferenceable(20) %0) #3 comdat align 2 {
  %2 = alloca ptr, align 8
  store ptr %0, ptr %2, align 8, !tbaa !29
  %3 = load ptr, ptr %2, align 8
  %4 = getelementptr inbounds nuw %"class.arrow_vendored::double_conversion::StringBuilder", ptr %3, i32 0, i32 1
  %5 = load i32, ptr %4, align 8, !tbaa !31
  %6 = icmp slt i32 %5, 0
  ret i1 %6
}

; Function Attrs: mustprogress nounwind uwtable
define linkonce_odr void @_ZN5arrow4util7Float16C2Etb(ptr noundef nonnull align 2 dereferenceable(2) %0, i16 noundef zeroext %1, i1 noundef zeroext %2) unnamed_addr #3 comdat align 2 {
  %4 = alloca ptr, align 8
  %5 = alloca i16, align 2
  %6 = alloca i8, align 1
  store ptr %0, ptr %4, align 8, !tbaa !64
  store i16 %1, ptr %5, align 2, !tbaa !43
  %7 = zext i1 %2 to i8
  store i8 %7, ptr %6, align 1, !tbaa !25
  %8 = load ptr, ptr %4, align 8
  %9 = getelementptr inbounds nuw %"class.arrow::util::Float16", ptr %8, i32 0, i32 0
  %10 = load i16, ptr %5, align 2, !tbaa !43
  store i16 %10, ptr %9, align 2, !tbaa !66
  ret void
}

; Function Attrs: mustprogress nounwind uwtable
define linkonce_odr noundef ptr @_ZNKSt10unique_ptrIN5arrow8internal22FloatToStringFormatter4ImplESt14default_deleteIS3_EE3getEv(ptr noundef nonnull align 8 dereferenceable(8) %0) #3 comdat align 2 {
  %2 = alloca ptr, align 8
  store ptr %0, ptr %2, align 8, !tbaa !10
  %3 = load ptr, ptr %2, align 8
  %4 = getelementptr inbounds nuw %"class.std::unique_ptr", ptr %3, i32 0, i32 0
  %5 = call noundef ptr @_ZNKSt15__uniq_ptr_implIN5arrow8internal22FloatToStringFormatter4ImplESt14default_deleteIS3_EE6_M_ptrEv(ptr noundef nonnull align 8 dereferenceable(8) %4) #9
  ret ptr %5
}

; Function Attrs: mustprogress nounwind uwtable
define linkonce_odr void @_ZN14arrow_vendored17double_conversion6VectorIcEC2EPci(ptr noundef nonnull align 8 dereferenceable(12) %0, ptr noundef %1, i32 noundef %2) unnamed_addr #3 comdat align 2 {
  %4 = alloca ptr, align 8
  %5 = alloca ptr, align 8
  %6 = alloca i32, align 4
  store ptr %0, ptr %4, align 8, !tbaa !60
  store ptr %1, ptr %5, align 8, !tbaa !14
  store i32 %2, ptr %6, align 4, !tbaa !12
  %7 = load ptr, ptr %4, align 8
  %8 = getelementptr inbounds nuw %"class.arrow_vendored::double_conversion::Vector", ptr %7, i32 0, i32 0
  %9 = load ptr, ptr %5, align 8, !tbaa !14
  store ptr %9, ptr %8, align 8, !tbaa !62
  %10 = getelementptr inbounds nuw %"class.arrow_vendored::double_conversion::Vector", ptr %7, i32 0, i32 1
  %11 = load i32, ptr %6, align 4, !tbaa !12
  store i32 %11, ptr %10, align 8, !tbaa !63
  ret void
}

; Function Attrs: mustprogress nounwind uwtable
define linkonce_odr void @_ZN14arrow_vendored17double_conversion13StringBuilderD2Ev(ptr noundef nonnull align 8 dereferenceable(20) %0) unnamed_addr #3 comdat align 2 personality ptr @__gxx_personality_v0 {
  %2 = alloca ptr, align 8
  store ptr %0, ptr %2, align 8, !tbaa !29
  %3 = load ptr, ptr %2, align 8
  %4 = invoke noundef zeroext i1 @_ZNK14arrow_vendored17double_conversion13StringBuilder12is_finalizedEv(ptr noundef nonnull align 8 dereferenceable(20) %3)
          to label %5 unwind label %10

5:                                                ; preds = %1
  br i1 %4, label %9, label %6

6:                                                ; preds = %5
  %7 = invoke noundef ptr @_ZN14arrow_vendored17double_conversion13StringBuilder8FinalizeEv(ptr noundef nonnull align 8 dereferenceable(20) %3)
          to label %8 unwind label %10

8:                                                ; preds = %6
  br label %9

9:                                                ; preds = %8, %5
  ret void

10:                                               ; preds = %6, %1
  %11 = landingpad { ptr, i32 }
          catch ptr null
  %12 = extractvalue { ptr, i32 } %11, 0
  call void @__clang_call_terminate(ptr %12) #11
  unreachable
}

; Function Attrs: mustprogress nounwind uwtable
define linkonce_odr noundef i32 @_ZNK14arrow_vendored17double_conversion13StringBuilder8positionEv(ptr noundef nonnull align 8 dereferenceable(20) %0) #3 comdat align 2 {
  %2 = alloca ptr, align 8
  store ptr %0, ptr %2, align 8, !tbaa !29
  %3 = load ptr, ptr %2, align 8
  %4 = getelementptr inbounds nuw %"class.arrow_vendored::double_conversion::StringBuilder", ptr %3, i32 0, i32 1
  %5 = load i32, ptr %4, align 8, !tbaa !31
  ret i32 %5
}

; Function Attrs: mustprogress uwtable
define linkonce_odr noundef zeroext i1 @_ZNK14arrow_vendored17double_conversion23DoubleToStringConverter10ToShortestEdPNS0_13StringBuilderE(ptr noundef nonnull align 8 dereferenceable(48) %0, double noundef %1, ptr noundef %2) #0 comdat align 2 {
  %4 = alloca ptr, align 8
  %5 = alloca double, align 8
  %6 = alloca ptr, align 8
  store ptr %0, ptr %4, align 8, !tbaa !34
  store double %1, ptr %5, align 8, !tbaa !36
  store ptr %2, ptr %6, align 8, !tbaa !29
  %7 = load ptr, ptr %4, align 8
  %8 = load double, ptr %5, align 8, !tbaa !36
  %9 = load ptr, ptr %6, align 8, !tbaa !29
  %10 = call noundef zeroext i1 @_ZNK14arrow_vendored17double_conversion23DoubleToStringConverter20ToShortestIeeeNumberEdPNS0_13StringBuilderENS1_8DtoaModeE(ptr noundef nonnull align 8 dereferenceable(48) %7, double noundef %8, ptr noundef %9, i32 noundef 0)
  ret i1 %10
}

; Function Attrs: mustprogress uwtable
define linkonce_odr i16 @_ZN5arrow4util7Float168FromBitsEt(i16 noundef zeroext %0) #0 comdat align 2 {
  %2 = alloca %"class.arrow::util::Float16", align 2
  %3 = alloca i16, align 2
  store i16 %0, ptr %3, align 2, !tbaa !43
  %4 = load i16, ptr %3, align 2, !tbaa !43
  call void @_ZN5arrow4util7Float16C2Etb(ptr noundef nonnull align 2 dereferenceable(2) %2, i16 noundef zeroext %4, i1 noundef zeroext false)
  %5 = getelementptr inbounds nuw %"class.arrow::util::Float16", ptr %2, i32 0, i32 0
  %6 = load i16, ptr %5, align 2
  ret i16 %6
}

; Function Attrs: mustprogress nounwind uwtable
define linkonce_odr noundef ptr @_ZNKSt10unique_ptrIN5arrow8internal22FloatToStringFormatter4ImplESt14default_deleteIS3_EEptEv(ptr noundef nonnull align 8 dereferenceable(8) %0) #3 comdat align 2 {
  %2 = alloca ptr, align 8
  store ptr %0, ptr %2, align 8, !tbaa !10
  %3 = load ptr, ptr %2, align 8
  %4 = call noundef ptr @_ZNKSt10unique_ptrIN5arrow8internal22FloatToStringFormatter4ImplESt14default_deleteIS3_EE3getEv(ptr noundef nonnull align 8 dereferenceable(8) %3) #9
  ret ptr %4
}

; Function Attrs: mustprogress uwtable
define linkonce_odr void @_ZN14arrow_vendored17double_conversion13StringBuilderC2EPci(ptr noundef nonnull align 8 dereferenceable(20) %0, ptr noundef %1, i32 noundef %2) unnamed_addr #0 comdat align 2 {
  %4 = alloca ptr, align 8
  %5 = alloca ptr, align 8
  %6 = alloca i32, align 4
  store ptr %0, ptr %4, align 8, !tbaa !29
  store ptr %1, ptr %5, align 8, !tbaa !14
  store i32 %2, ptr %6, align 4, !tbaa !12
  %7 = load ptr, ptr %4, align 8
  %8 = getelementptr inbounds nuw %"class.arrow_vendored::double_conversion::StringBuilder", ptr %7, i32 0, i32 0
  %9 = load ptr, ptr %5, align 8, !tbaa !14
  %10 = load i32, ptr %6, align 4, !tbaa !12
  call void @_ZN14arrow_vendored17double_conversion6VectorIcEC2EPci(ptr noundef nonnull align 8 dereferenceable(12) %8, ptr noundef %9, i32 noundef %10)
  %11 = getelementptr inbounds nuw %"class.arrow_vendored::double_conversion::StringBuilder", ptr %7, i32 0, i32 1
  store i32 0, ptr %11, align 8, !tbaa !31
  ret void
}

; Function Attrs: mustprogress uwtable
define noundef i32 @_ZN5arrow8internal22FloatToStringFormatter11FormatFloatEtPci(ptr noundef nonnull align 8 dereferenceable(8) %0, i16 noundef zeroext %1, ptr noundef %2, i32 noundef %3) #0 align 2 personality ptr @__gxx_personality_v0 {
  %5 = alloca ptr, align 8
  %6 = alloca i16, align 2
  %7 = alloca ptr, align 8
  %8 = alloca i32, align 4
  %9 = alloca %"class.arrow_vendored::double_conversion::StringBuilder", align 8
  %10 = alloca i8, align 1
  %11 = alloca %"class.arrow::util::Float16", align 2
  %12 = alloca ptr, align 8
  %13 = alloca i32, align 4
  store ptr %0, ptr %5, align 8, !tbaa !3
  store i16 %1, ptr %6, align 2, !tbaa !43
  store ptr %2, ptr %7, align 8, !tbaa !14
  store i32 %3, ptr %8, align 4, !tbaa !12
  %14 = load ptr, ptr %5, align 8
  br label %15

15:                                               ; preds = %16, %4
  br i1 false, label %16, label %17

16:                                               ; preds = %15
  br label %15, !llvm.loop !45

17:                                               ; preds = %15
  br label %18

18:                                               ; preds = %19, %17
  br i1 false, label %19, label %20

19:                                               ; preds = %18
  br label %18, !llvm.loop !46

20:                                               ; preds = %18
  br label %21

21:                                               ; preds = %22, %20
  br i1 false, label %22, label %23

22:                                               ; preds = %21
  br label %21, !llvm.loop !47

23:                                               ; preds = %21
  call void @llvm.lifetime.start.p0(i64 24, ptr %9) #9
  %24 = load ptr, ptr %7, align 8, !tbaa !14
  %25 = load i32, ptr %8, align 4, !tbaa !12
  call void @_ZN14arrow_vendored17double_conversion13StringBuilderC2EPci(ptr noundef nonnull align 8 dereferenceable(20) %9, ptr noundef %24, i32 noundef %25)
  call void @llvm.lifetime.start.p0(i64 1, ptr %10) #9
  %26 = getelementptr inbounds nuw %"class.arrow::internal::FloatToStringFormatter", ptr %14, i32 0, i32 0
  %27 = call noundef ptr @_ZNKSt10unique_ptrIN5arrow8internal22FloatToStringFormatter4ImplESt14default_deleteIS3_EEptEv(ptr noundef nonnull align 8 dereferenceable(8) %26) #9
  %28 = getelementptr inbounds nuw %"struct.arrow::internal::FloatToStringFormatter::Impl", ptr %27, i32 0, i32 0
  call void @llvm.lifetime.start.p0(i64 2, ptr %11) #9
  %29 = load i16, ptr %6, align 2, !tbaa !43
  %30 = invoke i16 @_ZN5arrow4util7Float168FromBitsEt(i16 noundef zeroext %29)
          to label %31 unwind label %41

31:                                               ; preds = %23
  %32 = getelementptr inbounds nuw %"class.arrow::util::Float16", ptr %11, i32 0, i32 0
  store i16 %30, ptr %32, align 2
  %33 = invoke noundef float @_ZNK5arrow4util7Float167ToFloatEv(ptr noundef nonnull align 2 dereferenceable(2) %11)
          to label %34 unwind label %41

34:                                               ; preds = %31
  %35 = fpext float %33 to double
  %36 = invoke noundef zeroext i1 @_ZNK14arrow_vendored17double_conversion23DoubleToStringConverter10ToShortestEdPNS0_13StringBuilderE(ptr noundef nonnull align 8 dereferenceable(48) %28, double noundef %35, ptr noundef %9)
          to label %37 unwind label %41

37:                                               ; preds = %34
  call void @llvm.lifetime.end.p0(i64 2, ptr %11) #9
  %38 = zext i1 %36 to i8
  store i8 %38, ptr %10, align 1, !tbaa !25
  br label %39

39:                                               ; preds = %40, %37
  br i1 false, label %40, label %45

40:                                               ; preds = %39
  br label %39, !llvm.loop !48

41:                                               ; preds = %34, %31, %23
  %42 = landingpad { ptr, i32 }
          cleanup
  %43 = extractvalue { ptr, i32 } %42, 0
  store ptr %43, ptr %12, align 8
  %44 = extractvalue { ptr, i32 } %42, 1
  store i32 %44, ptr %13, align 4
  call void @llvm.lifetime.end.p0(i64 2, ptr %11) #9
  br label %55

45:                                               ; preds = %39
  br label %46

46:                                               ; preds = %47, %45
  br i1 false, label %47, label %48

47:                                               ; preds = %46
  br label %46, !llvm.loop !49

48:                                               ; preds = %46
  %49 = invoke noundef i32 @_ZNK14arrow_vendored17double_conversion13StringBuilder8positionEv(ptr noundef nonnull align 8 dereferenceable(20) %9)
          to label %50 unwind label %51

50:                                               ; preds = %48
  call void @llvm.lifetime.end.p0(i64 1, ptr %10) #9
  call void @_ZN14arrow_vendored17double_conversion13StringBuilderD2Ev(ptr noundef nonnull align 8 dereferenceable(20) %9) #9
  call void @llvm.lifetime.end.p0(i64 24, ptr %9) #9
  ret i32 %49

51:                                               ; preds = %48
  %52 = landingpad { ptr, i32 }
          cleanup
  %53 = extractvalue { ptr, i32 } %52, 0
  store ptr %53, ptr %12, align 8
  %54 = extractvalue { ptr, i32 } %52, 1
  store i32 %54, ptr %13, align 4
  br label %55

55:                                               ; preds = %51, %41
  call void @llvm.lifetime.end.p0(i64 1, ptr %10) #9
  call void @_ZN14arrow_vendored17double_conversion13StringBuilderD2Ev(ptr noundef nonnull align 8 dereferenceable(20) %9) #9
  call void @llvm.lifetime.end.p0(i64 24, ptr %9) #9
  br label %56

56:                                               ; preds = %55
  %57 = load ptr, ptr %12, align 8
  %58 = load i32, ptr %13, align 4
  %59 = insertvalue { ptr, i32 } poison, ptr %57, 0
  %60 = insertvalue { ptr, i32 } %59, i32 %58, 1
  resume { ptr, i32 } %60
}