; Function Attrs: mustprogress uwtable
define noundef i32 @_ZN5arrow8internal22FloatToStringFormatter11FormatFloatEtPci(ptr noundef nonnull readonly align 8 captures(none) dereferenceable(8) %0, i16 noundef zeroext %1, ptr noundef %2, i32 noundef %3) local_unnamed_addr #0 align 2 personality ptr @__gxx_personality_v0 {
  %5 = alloca %"class.arrow_vendored::double_conversion::StringBuilder", align 8
  %6 = alloca %"class.arrow::util::Float16", align 2
  call void @llvm.lifetime.start.p0(i64 24, ptr nonnull %5) #8
  store ptr %2, ptr %5, align 8, !tbaa !20
  %7 = getelementptr inbounds nuw i8, ptr %5, i64 8
  store i32 %3, ptr %7, align 8, !tbaa !22
  %8 = getelementptr inbounds nuw i8, ptr %5, i64 16
  store i32 0, ptr %8, align 8, !tbaa !23
  %9 = load ptr, ptr %0, align 8, !tbaa !18
  call void @llvm.lifetime.start.p0(i64 2, ptr nonnull %6) #8
  store i16 %1, ptr %6, align 2
  %10 = invoke noundef float @_ZNK5arrow4util7Float167ToFloatEv(ptr noundef nonnull align 2 dereferenceable(2) %6)
          to label %11 unwind label %20

11:                                               ; preds = %4
  %12 = fpext float %10 to double
  %13 = invoke noundef zeroext i1 @_ZNK14arrow_vendored17double_conversion23DoubleToStringConverter20ToShortestIeeeNumberEdPNS0_13StringBuilderENS1_8DtoaModeE(ptr noundef nonnull align 8 dereferenceable(48) %9, double noundef %12, ptr noundef nonnull %5, i32 noundef 0)
          to label %_ZNK14arrow_vendored17double_conversion23DoubleToStringConverter10ToShortestEdPNS0_13StringBuilderE.exit unwind label %20

_ZNK14arrow_vendored17double_conversion23DoubleToStringConverter10ToShortestEdPNS0_13StringBuilderE.exit: ; preds = %11
  call void @llvm.lifetime.end.p0(i64 2, ptr nonnull %6) #8
  %14 = load i32, ptr %8, align 8, !tbaa !23
  %15 = icmp slt i32 %14, 0
  br i1 %15, label %_ZN14arrow_vendored17double_conversion13StringBuilderD2Ev.exit, label %16

16:                                               ; preds = %_ZNK14arrow_vendored17double_conversion23DoubleToStringConverter10ToShortestEdPNS0_13StringBuilderE.exit
  %17 = load ptr, ptr %5, align 8, !tbaa !20
  %18 = zext nneg i32 %14 to i64
  %19 = getelementptr inbounds nuw i8, ptr %17, i64 %18
  store i8 0, ptr %19, align 1, !tbaa !25
  br label %_ZN14arrow_vendored17double_conversion13StringBuilderD2Ev.exit

_ZN14arrow_vendored17double_conversion13StringBuilderD2Ev.exit: ; preds = %_ZNK14arrow_vendored17double_conversion23DoubleToStringConverter10ToShortestEdPNS0_13StringBuilderE.exit, %16
  call void @llvm.lifetime.end.p0(i64 24, ptr nonnull %5) #8
  ret i32 %14

20:                                               ; preds = %11, %4
  %21 = landingpad { ptr, i32 }
          cleanup
  call void @llvm.lifetime.end.p0(i64 2, ptr nonnull %6) #8
  %22 = load i32, ptr %8, align 8, !tbaa !23
  %23 = icmp slt i32 %22, 0
  br i1 %23, label %_ZN14arrow_vendored17double_conversion13StringBuilderD2Ev.exit5, label %24

24:                                               ; preds = %20
  %25 = load ptr, ptr %5, align 8, !tbaa !20
  %26 = zext nneg i32 %22 to i64
  %27 = getelementptr inbounds nuw i8, ptr %25, i64 %26
  store i8 0, ptr %27, align 1, !tbaa !25
  br label %_ZN14arrow_vendored17double_conversion13StringBuilderD2Ev.exit5

_ZN14arrow_vendored17double_conversion13StringBuilderD2Ev.exit5: ; preds = %20, %24
  call void @llvm.lifetime.end.p0(i64 24, ptr nonnull %5) #8
  resume { ptr, i32 } %21
}